; ModuleID = '22/287.c'
source_filename = "22/287.c"
target datalayout = "e-m:e-p270:32:32-p271:32:32-p272:64:64-i64:64-f80:128-n8:16:32:64-S128"
target triple = "x86_64-pc-linux-gnu"

@.str = private unnamed_addr constant [3 x i8] c"%c\00", align 1
@.str.1 = private unnamed_addr constant [3 x i8] c"No\00", align 1
@.str.2 = private unnamed_addr constant [3 x i8] c"%d\00", align 1

; Function Attrs: noinline nounwind uwtable
define dso_local void @main() #0 {
  %1 = alloca [300 x i32], align 16
  %2 = alloca i32, align 4
  %3 = alloca i32, align 4
  %4 = alloca i32, align 4
  %5 = alloca i32, align 4
  %6 = alloca i8, align 1
  store i32 0, i32* %2, align 4
  store i32 0, i32* %3, align 4
  br label %7

7:                                                ; preds = %14, %0
  %8 = load i32, i32* %3, align 4
  %9 = icmp slt i32 %8, 300
  br i1 %9, label %10, label %17

10:                                               ; preds = %7
  %11 = load i32, i32* %3, align 4
  %12 = sext i32 %11 to i64
  %13 = getelementptr inbounds [300 x i32], [300 x i32]* %1, i64 0, i64 %12
  store i32 0, i32* %13, align 4
  br label %14

14:                                               ; preds = %10
  %15 = load i32, i32* %3, align 4
  %16 = add nsw i32 %15, 1
  store i32 %16, i32* %3, align 4
  br label %7

17:                                               ; preds = %7
  br label %18

18:                                               ; preds = %44, %17
  %19 = call i32 (i8*, ...) @__isoc99_scanf(i8* getelementptr inbounds ([3 x i8], [3 x i8]* @.str, i64 0, i64 0), i8* %6)
  %20 = load i8, i8* %6, align 1
  %21 = sext i8 %20 to i32
  %22 = icmp sge i32 %21, 48
  br i1 %22, label %23, label %40

23:                                               ; preds = %18
  %24 = load i8, i8* %6, align 1
  %25 = sext i8 %24 to i32
  %26 = icmp sle i32 %25, 57
  br i1 %26, label %27, label %40

27:                                               ; preds = %23
  %28 = load i32, i32* %2, align 4
  %29 = sext i32 %28 to i64
  %30 = getelementptr inbounds [300 x i32], [300 x i32]* %1, i64 0, i64 %29
  %31 = load i32, i32* %30, align 4
  %32 = mul nsw i32 %31, 10
  %33 = load i8, i8* %6, align 1
  %34 = sext i8 %33 to i32
  %35 = add nsw i32 %32, %34
  %36 = sub nsw i32 %35, 48
  %37 = load i32, i32* %2, align 4
  %38 = sext i32 %37 to i64
  %39 = getelementptr inbounds [300 x i32], [300 x i32]* %1, i64 0, i64 %38
  store i32 %36, i32* %39, align 4
  br label %43

40:                                               ; preds = %23, %18
  %41 = load i32, i32* %2, align 4
  %42 = add nsw i32 %41, 1
  store i32 %42, i32* %2, align 4
  br label %43

43:                                               ; preds = %40, %27
  br label %44

44:                                               ; preds = %43
  %45 = load i8, i8* %6, align 1
  %46 = sext i8 %45 to i32
  %47 = icmp ne i32 %46, 10
  br i1 %47, label %18, label %48

48:                                               ; preds = %44
  store i32 0, i32* %3, align 4
  br label %49

49:                                               ; preds = %94, %48
  %50 = load i32, i32* %3, align 4
  %51 = load i32, i32* %2, align 4
  %52 = icmp slt i32 %50, %51
  br i1 %52, label %53, label %97

53:                                               ; preds = %49
  store i32 0, i32* %4, align 4
  br label %54

54:                                               ; preds = %90, %53
  %55 = load i32, i32* %4, align 4
  %56 = load i32, i32* %2, align 4
  %57 = load i32, i32* %3, align 4
  %58 = sub nsw i32 %56, %57
  %59 = icmp slt i32 %55, %58
  br i1 %59, label %60, label %93

60:                                               ; preds = %54
  %61 = load i32, i32* %4, align 4
  %62 = sext i32 %61 to i64
  %63 = getelementptr inbounds [300 x i32], [300 x i32]* %1, i64 0, i64 %62
  %64 = load i32, i32* %63, align 4
  %65 = load i32, i32* %4, align 4
  %66 = add nsw i32 %65, 1
  %67 = sext i32 %66 to i64
  %68 = getelementptr inbounds [300 x i32], [300 x i32]* %1, i64 0, i64 %67
  %69 = load i32, i32* %68, align 4
  %70 = icmp slt i32 %64, %69
  br i1 %70, label %71, label %89

71:                                               ; preds = %60
  %72 = load i32, i32* %4, align 4
  %73 = sext i32 %72 to i64
  %74 = getelementptr inbounds [300 x i32], [300 x i32]* %1, i64 0, i64 %73
  %75 = load i32, i32* %74, align 4
  store i32 %75, i32* %5, align 4
  %76 = load i32, i32* %4, align 4
  %77 = add nsw i32 %76, 1
  %78 = sext i32 %77 to i64
  %79 = getelementptr inbounds [300 x i32], [300 x i32]* %1, i64 0, i64 %78
  %80 = load i32, i32* %79, align 4
  %81 = load i32, i32* %4, align 4
  %82 = sext i32 %81 to i64
  %83 = getelementptr inbounds [300 x i32], [300 x i32]* %1, i64 0, i64 %82
  store i32 %80, i32* %83, align 4
  %84 = load i32, i32* %5, align 4
  %85 = load i32, i32* %4, align 4
  %86 = add nsw i32 %85, 1
  %87 = sext i32 %86 to i64
  %88 = getelementptr inbounds [300 x i32], [300 x i32]* %1, i64 0, i64 %87
  store i32 %84, i32* %88, align 4
  br label %89

89:                                               ; preds = %71, %60
  br label %90

90:                                               ; preds = %89
  %91 = load i32, i32* %4, align 4
  %92 = add nsw i32 %91, 1
  store i32 %92, i32* %4, align 4
  br label %54

93:                                               ; preds = %54
  br label %94

94:                                               ; preds = %93
  %95 = load i32, i32* %3, align 4
  %96 = add nsw i32 %95, 1
  store i32 %96, i32* %3, align 4
  br label %49

97:                                               ; preds = %49
  %98 = getelementptr inbounds [300 x i32], [300 x i32]* %1, i64 0, i64 0
  %99 = load i32, i32* %98, align 16
  %100 = load i32, i32* %2, align 4
  %101 = sub nsw i32 %100, 1
  %102 = sext i32 %101 to i64
  %103 = getelementptr inbounds [300 x i32], [300 x i32]* %1, i64 0, i64 %102
  %104 = load i32, i32* %103, align 4
  %105 = icmp eq i32 %99, %104
  br i1 %105, label %109, label %106

106:                                              ; preds = %97
  %107 = load i32, i32* %2, align 4
  %108 = icmp eq i32 %107, 1
  br i1 %108, label %109, label %111

109:                                              ; preds = %106, %97
  %110 = call i32 (i8*, ...) @printf(i8* getelementptr inbounds ([3 x i8], [3 x i8]* @.str.1, i64 0, i64 0))
  br label %135

111:                                              ; preds = %106
  store i32 0, i32* %4, align 4
  br label %112

112:                                              ; preds = %131, %111
  %113 = load i32, i32* %4, align 4
  %114 = load i32, i32* %2, align 4
  %115 = icmp sle i32 %113, %114
  br i1 %115, label %116, label %134

116:                                              ; preds = %112
  %117 = load i32, i32* %4, align 4
  %118 = sext i32 %117 to i64
  %119 = getelementptr inbounds [300 x i32], [300 x i32]* %1, i64 0, i64 %118
  %120 = load i32, i32* %119, align 4
  %121 = getelementptr inbounds [300 x i32], [300 x i32]* %1, i64 0, i64 0
  %122 = load i32, i32* %121, align 16
  %123 = icmp slt i32 %120, %122
  br i1 %123, label %124, label %130

124:                                              ; preds = %116
  %125 = load i32, i32* %4, align 4
  %126 = sext i32 %125 to i64
  %127 = getelementptr inbounds [300 x i32], [300 x i32]* %1, i64 0, i64 %126
  %128 = load i32, i32* %127, align 4
  %129 = call i32 (i8*, ...) @printf(i8* getelementptr inbounds ([3 x i8], [3 x i8]* @.str.2, i64 0, i64 0), i32 %128)
  br label %134

130:                                              ; preds = %116
  br label %131

131:                                              ; preds = %130
  %132 = load i32, i32* %4, align 4
  %133 = add nsw i32 %132, 1
  store i32 %133, i32* %4, align 4
  br label %112

134:                                              ; preds = %124, %112
  br label %135

135:                                              ; preds = %134, %109
  ret void
}

declare dso_local i32 @__isoc99_scanf(i8*, ...) #1

declare dso_local i32 @printf(i8*, ...) #1


!llvm.module.flags = !{!0}
!llvm.ident = !{!1}

!0 = !{i32 1, !"wchar_size", i32 4}
!1 = !{!"clang version 10.0.0-4ubuntu1 "}
